target datalayout = "e-m:e-p270:32:32-p271:32:32-p272:64:64-i64:64-i128:128-f80:128-n8:16:32:64-S128"
target triple = "x86_64-pc-linux-gnu"

%struct._object = type { i64, ptr }
%"struct.nanobind::detail::type_data" = type { i32, i32, ptr, ptr, ptr, ptr, ptr, ptr, ptr, ptr, %union.anon, ptr, ptr }
%union.anon = type { %struct.anon }
%struct.anon = type { ptr, ptr }
%"struct.nanobind::detail::nb_inst" = type { %struct._object, i32, i32 }

; Function Attrs: noinline noreturn nounwind uwtable
define linkonce_odr hidden void @__clang_call_terminate(ptr noundef %0) #9 comdat {
  %2 = call ptr @__cxa_begin_catch(ptr %0) #20
  call void @_ZSt9terminatev() #22
  unreachable
}

; Function Attrs: inlinehint mustprogress nounwind uwtable
define linkonce_odr hidden noundef ptr @_ZN8nanobind6detail8inst_ptrEPNS0_7nb_instE(ptr noundef %0) #2 comdat {
  %2 = alloca ptr, align 8
  %3 = alloca ptr, align 8
  store ptr %0, ptr %2, align 8
  call void @llvm.lifetime.start.p0(i64 8, ptr %3) #20
  %4 = load ptr, ptr %2, align 8
  %5 = ptrtoint ptr %4 to i64
  %6 = load ptr, ptr %2, align 8
  %7 = getelementptr inbounds nuw %"struct.nanobind::detail::nb_inst", ptr %6, i32 0, i32 1
  %8 = load i32, ptr %7, align 8
  %9 = sext i32 %8 to i64
  %10 = add nsw i64 %5, %9
  %11 = inttoptr i64 %10 to ptr
  store ptr %11, ptr %3, align 8
  %12 = load ptr, ptr %2, align 8
  %13 = getelementptr inbounds nuw %"struct.nanobind::detail::nb_inst", ptr %12, i32 0, i32 2
  %14 = load i32, ptr %13, align 4
  %15 = lshr i32 %14, 2
  %16 = and i32 %15, 1
  %17 = icmp ne i32 %16, 0
  br i1 %17, label %18, label %20

18:                                               ; preds = %1
  %19 = load ptr, ptr %3, align 8
  br label %23

20:                                               ; preds = %1
  %21 = load ptr, ptr %3, align 8
  %22 = load ptr, ptr %21, align 8
  br label %23

23:                                               ; preds = %20, %18
  %24 = phi ptr [ %19, %18 ], [ %22, %20 ]
  call void @llvm.lifetime.end.p0(i64 8, ptr %3) #20
  ret ptr %24
}

; Function Attrs: alwaysinline mustprogress nounwind uwtable
define linkonce_odr hidden noundef ptr @_ZN8nanobind6detail12nb_type_dataEP11_typeobject(ptr noundef %0) #5 comdat {
  %2 = alloca ptr, align 8
  store ptr %0, ptr %2, align 8
  %3 = load ptr, ptr %2, align 8
  %4 = getelementptr inbounds nuw i8, ptr %3, i64 888
  ret ptr %4
}

; Function Attrs: mustprogress nounwind uwtable
define void @_ZN8nanobind6detail12nb_inst_zeroEP7_object(ptr noundef %0) #6 personality ptr @__gxx_personality_v0 {
  %2 = alloca ptr, align 8
  %3 = alloca ptr, align 8
  %4 = alloca ptr, align 8
  store ptr %0, ptr %2, align 8
  call void @llvm.lifetime.start.p0(i64 8, ptr %3) #20
  %5 = load ptr, ptr %2, align 8
  store ptr %5, ptr %3, align 8
  call void @llvm.lifetime.start.p0(i64 8, ptr %4) #20
  %6 = load ptr, ptr %2, align 8
  %7 = getelementptr inbounds nuw %struct._object, ptr %6, i32 0, i32 1
  %8 = load ptr, ptr %7, align 8
  %9 = call noundef ptr @_ZN8nanobind6detail12nb_type_dataEP11_typeobject(ptr noundef %8) #20
  store ptr %9, ptr %4, align 8
  %10 = load ptr, ptr %3, align 8
  %11 = invoke noundef ptr @_ZN8nanobind6detail8inst_ptrEPNS0_7nb_instE(ptr noundef %10)
          to label %12 unwind label %27

12:                                               ; preds = %1
  %13 = load ptr, ptr %4, align 8
  %14 = getelementptr inbounds nuw %"struct.nanobind::detail::type_data", ptr %13, i32 0, i32 0
  %15 = load i32, ptr %14, align 8
  %16 = zext i32 %15 to i64
  call void @llvm.memset.p0.i64(ptr align 1 %11, i8 0, i64 %16, i1 false)
  %17 = load ptr, ptr %3, align 8
  %18 = getelementptr inbounds nuw %"struct.nanobind::detail::nb_inst", ptr %17, i32 0, i32 2
  %19 = load i32, ptr %18, align 4
  %20 = and i32 %19, -4
  %21 = or i32 %20, 2
  store i32 %21, ptr %18, align 4
  %22 = load ptr, ptr %3, align 8
  %23 = getelementptr inbounds nuw %"struct.nanobind::detail::nb_inst", ptr %22, i32 0, i32 2
  %24 = load i32, ptr %23, align 4
  %25 = and i32 %24, -17
  %26 = or i32 %25, 16
  store i32 %26, ptr %23, align 4
  call void @llvm.lifetime.end.p0(i64 8, ptr %4) #20
  call void @llvm.lifetime.end.p0(i64 8, ptr %3) #20
  ret void

27:                                               ; preds = %1
  %28 = landingpad { ptr, i32 }
          catch ptr null
  %29 = extractvalue { ptr, i32 } %28, 0
  call void @__clang_call_terminate(ptr %29) #22
  unreachable
}