; Function Attrs: mustprogress nofree norecurse nosync nounwind willreturn memory(readwrite, inaccessiblemem: none) uwtable
define void @_ZN8nanobind6detail12nb_inst_zeroEP7_object(ptr noundef %0) local_unnamed_addr #19 personality ptr @__gxx_personality_v0 {
  %2 = getelementptr inbounds nuw i8, ptr %0, i64 8
  %3 = load ptr, ptr %2, align 8
  %4 = ptrtoint ptr %0 to i64
  %5 = getelementptr inbounds nuw i8, ptr %0, i64 16
  %6 = load i32, ptr %5, align 8
  %7 = sext i32 %6 to i64
  %8 = add nsw i64 %7, %4
  %9 = inttoptr i64 %8 to ptr
  %10 = getelementptr inbounds nuw i8, ptr %0, i64 20
  %11 = load i32, ptr %10, align 4
  %12 = and i32 %11, 4
  %.not.i = icmp eq i32 %12, 0
  br i1 %.not.i, label %13, label %_ZN8nanobind6detail8inst_ptrEPNS0_7nb_instE.exit

13:                                               ; preds = %1
  %14 = load ptr, ptr %9, align 8
  br label %_ZN8nanobind6detail8inst_ptrEPNS0_7nb_instE.exit

_ZN8nanobind6detail8inst_ptrEPNS0_7nb_instE.exit: ; preds = %1, %13
  %15 = phi ptr [ %14, %13 ], [ %9, %1 ]
  %16 = getelementptr inbounds nuw i8, ptr %3, i64 888
  %17 = load i32, ptr %16, align 8
  %18 = zext i32 %17 to i64
  tail call void @llvm.memset.p0.i64(ptr align 1 %15, i8 0, i64 %18, i1 false)
  %19 = load i32, ptr %10, align 4
  %20 = and i32 %19, -20
  %21 = or disjoint i32 %20, 18
  store i32 %21, ptr %10, align 4
  ret void
}